; Function Attrs: nounwind uwtable
define dso_local range(i64 0, 4294967296) i64 @hashfloat4(ptr noundef readonly captures(none) %0) local_unnamed_addr #0 {
  %2 = alloca double, align 8
  %3 = getelementptr inbounds nuw i8, ptr %0, i64 32
  %4 = load i64, ptr %3, align 8
  %5 = trunc i64 %4 to i32
  %6 = bitcast i32 %5 to float
  call void @llvm.lifetime.start.p0(i64 8, ptr nonnull %2) #6
  %7 = fcmp oeq float %6, 0.000000e+00
  br i1 %7, label %13, label %8

8:                                                ; preds = %1
  %9 = fpext float %6 to double
  %10 = fcmp uno float %6, 0.000000e+00
  %storemerge = select i1 %10, double 0x7FF8000000000000, double %9
  store double %storemerge, ptr %2, align 8
  %11 = call i32 @hash_bytes(ptr noundef nonnull %2, i32 noundef 8) #6
  %12 = zext i32 %11 to i64
  br label %13

13:                                               ; preds = %1, %8
  %.0 = phi i64 [ %12, %8 ], [ 0, %1 ]
  call void @llvm.lifetime.end.p0(i64 8, ptr nonnull %2) #6
  ret i64 %.0
}